; Function Attrs: nounwind uwtable
define ptr @l_Array_foldrMUnsafe_fold___at_Lean_Meta_IndPredBelow_proveBrecOn_applyCtors___spec__4(ptr noundef readonly captures(none) %0, i64 noundef %1, i64 noundef %2, ptr noundef %3) local_unnamed_addr #0 {
  %.not25 = icmp eq i64 %1, %2
  br i1 %.not25, label %._crit_edge, label %.lr.ph

.lr.ph:                                           ; preds = %4
  %5 = getelementptr inbounds nuw i8, ptr %0, i64 24
  br label %6

6:                                                ; preds = %.lr.ph, %18
  %.01427 = phi i64 [ %1, %.lr.ph ], [ %7, %18 ]
  %.01626 = phi ptr [ %3, %.lr.ph ], [ %19, %18 ]
  %7 = add i64 %.01427, -1
  %8 = getelementptr inbounds nuw [0 x ptr], ptr %5, i64 0, i64 %7
  %9 = load ptr, ptr %8, align 8, !tbaa !4
  %10 = ptrtoint ptr %9 to i64
  %11 = and i64 %10, 1
  %.not.i = icmp eq i64 %11, 0
  br i1 %.not.i, label %12, label %18

12:                                               ; preds = %6
  %.val.i.i = load i32, ptr %9, align 4, !tbaa !12
  %13 = icmp sgt i32 %.val.i.i, 0
  br i1 %13, label %14, label %16, !prof !11

14:                                               ; preds = %12
  %15 = add nuw i32 %.val.i.i, 1
  store i32 %15, ptr %9, align 4, !tbaa !12
  br label %18

16:                                               ; preds = %12
  %.not.i.i = icmp eq i32 %.val.i.i, 0
  br i1 %.not.i.i, label %18, label %17

17:                                               ; preds = %16
  tail call void @lean_inc_ref_cold(ptr noundef nonnull %9) #6
  br label %18

18:                                               ; preds = %17, %16, %14, %6
  %19 = tail call ptr @l_List_appendTR___rarg(ptr noundef %9, ptr noundef %.01626) #6
  %.not = icmp eq i64 %7, %2
  br i1 %.not, label %._crit_edge, label %6

._crit_edge:                                      ; preds = %18, %4
  %.016.lcssa = phi ptr [ %3, %4 ], [ %19, %18 ]
  ret ptr %.016.lcssa
}